target datalayout = "e-m:e-p270:32:32-p271:32:32-p272:64:64-i64:64-i128:128-f80:128-n8:16:32:64-S128"
target triple = "x86_64-pc-linux-gnu"

%struct.Camera = type { %struct.b2Vec2, float, i32, i32 }
%struct.b2Vec2 = type { float, float }

@g_camera = external global %struct.Camera, align 4
@_ZL13s_windowScale = internal global float 1.000000e+00, align 4
@_ZL8s_sample = internal global ptr null, align 8
@_ZL14s_clickPointWS = internal global %struct.b2Vec2 zeroinitializer, align 4
@_ZL16s_rightMouseDown = internal global i8 0, align 1

; Function Attrs: inlinehint mustprogress nounwind uwtable
define linkonce_odr dso_local <2 x float> @_Z5b2Sub6b2Vec2S_(<2 x float> %0, <2 x float> %1) #12 comdat {
  %3 = alloca %struct.b2Vec2, align 4
  %4 = alloca %struct.b2Vec2, align 4
  %5 = alloca %struct.b2Vec2, align 4
  store <2 x float> %0, ptr %4, align 4
  store <2 x float> %1, ptr %5, align 4
  %6 = getelementptr inbounds nuw %struct.b2Vec2, ptr %3, i32 0, i32 0
  %7 = getelementptr inbounds nuw %struct.b2Vec2, ptr %4, i32 0, i32 0
  %8 = load float, ptr %7, align 4, !tbaa !106
  %9 = getelementptr inbounds nuw %struct.b2Vec2, ptr %5, i32 0, i32 0
  %10 = load float, ptr %9, align 4, !tbaa !106
  %11 = fsub float %8, %10
  store float %11, ptr %6, align 4, !tbaa !106
  %12 = getelementptr inbounds nuw %struct.b2Vec2, ptr %3, i32 0, i32 1
  %13 = getelementptr inbounds nuw %struct.b2Vec2, ptr %4, i32 0, i32 1
  %14 = load float, ptr %13, align 4, !tbaa !107
  %15 = getelementptr inbounds nuw %struct.b2Vec2, ptr %5, i32 0, i32 1
  %16 = load float, ptr %15, align 4, !tbaa !107
  %17 = fsub float %14, %16
  store float %17, ptr %12, align 4, !tbaa !107
  %18 = load <2 x float>, ptr %3, align 4
  ret <2 x float> %18
}

; Function Attrs: mustprogress uwtable
define internal void @_ZL19MouseMotionCallbackP10GLFWwindowdd(ptr noundef %0, double noundef %1, double noundef %2) #10 {
  %4 = alloca ptr, align 8
  %5 = alloca double, align 8
  %6 = alloca double, align 8
  %7 = alloca %struct.b2Vec2, align 4
  %8 = alloca %struct.b2Vec2, align 4
  %9 = alloca %struct.b2Vec2, align 4
  %10 = alloca %struct.b2Vec2, align 4
  %11 = alloca %struct.b2Vec2, align 4
  %12 = alloca %struct.b2Vec2, align 4
  %13 = alloca %struct.b2Vec2, align 4
  %14 = alloca %struct.b2Vec2, align 4
  %15 = alloca %struct.b2Vec2, align 4
  store ptr %0, ptr %4, align 8, !tbaa !38
  store double %1, ptr %5, align 8, !tbaa !44
  store double %2, ptr %6, align 8, !tbaa !44
  call void @llvm.lifetime.start.p0(i64 8, ptr %7) #14
  %16 = getelementptr inbounds nuw %struct.b2Vec2, ptr %7, i32 0, i32 0
  %17 = load double, ptr %5, align 8, !tbaa !44
  %18 = fptrunc double %17 to float
  %19 = load float, ptr @_ZL13s_windowScale, align 4, !tbaa !37
  %20 = fdiv float %18, %19
  store float %20, ptr %16, align 4, !tbaa !106
  %21 = getelementptr inbounds nuw %struct.b2Vec2, ptr %7, i32 0, i32 1
  %22 = load double, ptr %6, align 8, !tbaa !44
  %23 = fptrunc double %22 to float
  %24 = load float, ptr @_ZL13s_windowScale, align 4, !tbaa !37
  %25 = fdiv float %23, %24
  store float %25, ptr %21, align 4, !tbaa !107
  %26 = load ptr, ptr %4, align 8, !tbaa !38
  %27 = getelementptr inbounds nuw %struct.b2Vec2, ptr %7, i32 0, i32 0
  %28 = load float, ptr %27, align 4, !tbaa !106
  %29 = fpext float %28 to double
  %30 = getelementptr inbounds nuw %struct.b2Vec2, ptr %7, i32 0, i32 1
  %31 = load float, ptr %30, align 4, !tbaa !107
  %32 = fpext float %31 to double
  call void @_Z32ImGui_ImplGlfw_CursorPosCallbackP10GLFWwindowdd(ptr noundef %26, double noundef %29, double noundef %32)
  call void @llvm.lifetime.start.p0(i64 8, ptr %8) #14
  call void @llvm.memcpy.p0.p0.i64(ptr align 4 %9, ptr align 4 %7, i64 8, i1 false), !tbaa.struct !102
  %33 = load <2 x float>, ptr %9, align 4
  %34 = call <2 x float> @_ZN6Camera20ConvertScreenToWorldE6b2Vec2(ptr noundef nonnull align 4 dereferenceable(20) @g_camera, <2 x float> %33)
  store <2 x float> %34, ptr %8, align 4
  %35 = load ptr, ptr @_ZL8s_sample, align 8, !tbaa !62
  call void @llvm.memcpy.p0.p0.i64(ptr align 4 %10, ptr align 4 %8, i64 8, i1 false), !tbaa.struct !102
  %36 = load <2 x float>, ptr %10, align 4
  %37 = load ptr, ptr %35, align 8, !tbaa !82
  %38 = getelementptr inbounds ptr, ptr %37, i64 7
  %39 = load ptr, ptr %38, align 8
  call void %39(ptr noundef nonnull align 8 dereferenceable(248) %35, <2 x float> %36)
  %40 = load i8, ptr @_ZL16s_rightMouseDown, align 1, !tbaa !34, !range !35, !noundef !36
  %41 = trunc i8 %40 to i1
  br i1 %41, label %42, label %56

42:                                               ; preds = %3
  call void @llvm.lifetime.start.p0(i64 8, ptr %11) #14
  call void @llvm.memcpy.p0.p0.i64(ptr align 4 %12, ptr align 4 %8, i64 8, i1 false), !tbaa.struct !102
  call void @llvm.memcpy.p0.p0.i64(ptr align 4 %13, ptr align 4 @_ZL14s_clickPointWS, i64 8, i1 false), !tbaa.struct !102
  %43 = load <2 x float>, ptr %12, align 4
  %44 = load <2 x float>, ptr %13, align 4
  %45 = call <2 x float> @_Z5b2Sub6b2Vec2S_(<2 x float> %43, <2 x float> %44)
  store <2 x float> %45, ptr %11, align 4
  %46 = getelementptr inbounds nuw %struct.b2Vec2, ptr %11, i32 0, i32 0
  %47 = load float, ptr %46, align 4, !tbaa !106
  %48 = load float, ptr @g_camera, align 4, !tbaa !93
  %49 = fsub float %48, %47
  store float %49, ptr @g_camera, align 4, !tbaa !93
  %50 = getelementptr inbounds nuw %struct.b2Vec2, ptr %11, i32 0, i32 1
  %51 = load float, ptr %50, align 4, !tbaa !107
  %52 = load float, ptr getelementptr inbounds nuw (%struct.b2Vec2, ptr @g_camera, i32 0, i32 1), align 4, !tbaa !94
  %53 = fsub float %52, %51
  store float %53, ptr getelementptr inbounds nuw (%struct.b2Vec2, ptr @g_camera, i32 0, i32 1), align 4, !tbaa !94
  call void @llvm.lifetime.start.p0(i64 8, ptr %14) #14
  call void @llvm.memcpy.p0.p0.i64(ptr align 4 %15, ptr align 4 %7, i64 8, i1 false), !tbaa.struct !102
  %54 = load <2 x float>, ptr %15, align 4
  %55 = call <2 x float> @_ZN6Camera20ConvertScreenToWorldE6b2Vec2(ptr noundef nonnull align 4 dereferenceable(20) @g_camera, <2 x float> %54)
  store <2 x float> %55, ptr %14, align 4
  call void @llvm.memcpy.p0.p0.i64(ptr align 4 @_ZL14s_clickPointWS, ptr align 4 %14, i64 8, i1 false), !tbaa.struct !102
  call void @llvm.lifetime.end.p0(i64 8, ptr %14) #14
  call void @llvm.lifetime.end.p0(i64 8, ptr %11) #14
  br label %56

56:                                               ; preds = %42, %3
  call void @llvm.lifetime.end.p0(i64 8, ptr %8) #14
  call void @llvm.lifetime.end.p0(i64 8, ptr %7) #14
  ret void
}