; Function Attrs: mustprogress uwtable
define internal void @_ZL19MouseMotionCallbackP10GLFWwindowdd(ptr noundef %0, double noundef %1, double noundef %2) #12 {
  %4 = fptrunc double %1 to float
  %5 = load float, ptr @_ZL13s_windowScale, align 4, !tbaa !21
  %6 = fdiv float %4, %5
  %.sroa.09.0.vec.insert = insertelement <2 x float> poison, float %6, i64 0
  %7 = fptrunc double %2 to float
  %8 = fdiv float %7, %5
  %.sroa.09.4.vec.insert = insertelement <2 x float> %.sroa.09.0.vec.insert, float %8, i64 1
  %9 = fpext float %6 to double
  %10 = fpext float %8 to double
  tail call void @_Z32ImGui_ImplGlfw_CursorPosCallbackP10GLFWwindowdd(ptr noundef %0, double noundef %9, double noundef %10)
  %11 = tail call <2 x float> @_ZN6Camera20ConvertScreenToWorldE6b2Vec2(ptr noundef nonnull align 4 dereferenceable(20) @g_camera, <2 x float> %.sroa.09.4.vec.insert)
  %12 = load ptr, ptr @_ZL8s_sample, align 8, !tbaa !66
  %13 = load ptr, ptr %12, align 8, !tbaa !75
  %14 = getelementptr inbounds nuw i8, ptr %13, i64 56
  %15 = load ptr, ptr %14, align 8
  tail call void %15(ptr noundef nonnull align 8 dereferenceable(248) %12, <2 x float> %11)
  %.b16 = load i1, ptr @_ZL16s_rightMouseDown, align 1
  br i1 %.b16, label %16, label %26

16:                                               ; preds = %3
  %.sroa.02.0.copyload = load <2 x float>, ptr @_ZL14s_clickPointWS.0, align 8
  %17 = fsub <2 x float> %11, %.sroa.02.0.copyload
  %18 = extractelement <2 x float> %17, i64 0
  %19 = fsub <2 x float> %11, %.sroa.02.0.copyload
  %20 = extractelement <2 x float> %19, i64 1
  %21 = load float, ptr @g_camera, align 4, !tbaa !92
  %22 = fsub float %21, %18
  store float %22, ptr @g_camera, align 4, !tbaa !92
  %23 = load float, ptr getelementptr inbounds nuw (i8, ptr @g_camera, i64 4), align 4, !tbaa !93
  %24 = fsub float %23, %20
  store float %24, ptr getelementptr inbounds nuw (i8, ptr @g_camera, i64 4), align 4, !tbaa !93
  %25 = tail call <2 x float> @_ZN6Camera20ConvertScreenToWorldE6b2Vec2(ptr noundef nonnull align 4 dereferenceable(20) @g_camera, <2 x float> %.sroa.09.4.vec.insert)
  store <2 x float> %25, ptr @_ZL14s_clickPointWS.0, align 8
  br label %26

26:                                               ; preds = %16, %3
  ret void
}